target datalayout = "e-m:e-p270:32:32-p271:32:32-p272:64:64-i64:64-i128:128-f80:128-n8:16:32:64-S128"
target triple = "x86_64-pc-linux-gnu"

%struct.diff_queue_struct = type { ptr, i32, i32 }

@diff_queued_diff = dso_local global %struct.diff_queue_struct zeroinitializer, align 8

; Function Attrs: inlinehint nounwind uwtable
define internal void @sane_qsort(ptr noundef %0, i64 noundef %1, i64 noundef %2, ptr noundef %3) #2 {
  %5 = alloca ptr, align 8
  %6 = alloca i64, align 8
  %7 = alloca i64, align 8
  %8 = alloca ptr, align 8
  store ptr %0, ptr %5, align 8, !tbaa !18
  store i64 %1, ptr %6, align 8, !tbaa !11
  store i64 %2, ptr %7, align 8, !tbaa !11
  store ptr %3, ptr %8, align 8, !tbaa !18
  %9 = load i64, ptr %6, align 8, !tbaa !11
  %10 = icmp ugt i64 %9, 1
  br i1 %10, label %11, label %16

11:                                               ; preds = %4
  %12 = load ptr, ptr %5, align 8, !tbaa !18
  %13 = load i64, ptr %6, align 8, !tbaa !11
  %14 = load i64, ptr %7, align 8, !tbaa !11
  %15 = load ptr, ptr %8, align 8, !tbaa !18
  call void @qsort(ptr noundef %12, i64 noundef %13, i64 noundef %14, ptr noundef %15)
  br label %16

16:                                               ; preds = %11, %4
  ret void
}

; Function Attrs: nounwind uwtable
define dso_local void @diffcore_fix_diff_index() #0 {
  %1 = alloca ptr, align 8
  call void @llvm.lifetime.start.p0(i64 8, ptr %1) #10
  store ptr @diff_queued_diff, ptr %1, align 8, !tbaa !268
  %2 = load ptr, ptr %1, align 8, !tbaa !268
  %3 = getelementptr inbounds nuw %struct.diff_queue_struct, ptr %2, i32 0, i32 0
  %4 = load ptr, ptr %3, align 8, !tbaa !274
  %5 = load ptr, ptr %1, align 8, !tbaa !268
  %6 = getelementptr inbounds nuw %struct.diff_queue_struct, ptr %5, i32 0, i32 2
  %7 = load i32, ptr %6, align 4, !tbaa !270
  %8 = sext i32 %7 to i64
  call void @sane_qsort(ptr noundef %4, i64 noundef %8, i64 noundef 8, ptr noundef @diffnamecmp)
  call void @llvm.lifetime.end.p0(i64 8, ptr %1) #10
  ret void
}