; Function Attrs: nofree nounwind uwtable
define dso_local void @diffcore_fix_diff_index() local_unnamed_addr #25 {
  %1 = load i32, ptr getelementptr inbounds nuw (i8, ptr @diff_queued_diff, i64 12), align 4, !tbaa !172
  %2 = icmp ugt i32 %1, 1
  br i1 %2, label %3, label %sane_qsort.exit

3:                                                ; preds = %0
  %4 = sext i32 %1 to i64
  %5 = load ptr, ptr @diff_queued_diff, align 8, !tbaa !176
  tail call void @qsort(ptr noundef %5, i64 noundef range(i64 -2147483648, 2147483648) %4, i64 noundef 8, ptr noundef nonnull @diffnamecmp) #32
  br label %sane_qsort.exit

sane_qsort.exit:                                  ; preds = %0, %3
  ret void
}